; Function Attrs: mustprogress nofree norecurse nosync nounwind willreturn memory(argmem: read) uwtable
define noundef double @_ZNK8QuantLib19CappedFlooredCoupon14effectiveFloorEv(ptr nocapture noundef nonnull readonly align 8 dereferenceable(216) %this) local_unnamed_addr #13 align 2 {
entry:
  %isFloored_ = getelementptr inbounds nuw i8, ptr %this, i64 193
  %0 = load i8, ptr %isFloored_, align 1, !tbaa !66, !range !26, !noundef !27
  %loadedv = trunc nuw i8 %0 to i1
  br i1 %loadedv, label %if.then, label %return

if.then:                                          ; preds = %entry
  %floor_ = getelementptr inbounds nuw i8, ptr %this, i64 208
  %1 = load double, ptr %floor_, align 8, !tbaa !68
  %spread_.i = getelementptr inbounds nuw i8, ptr %this, i64 136
  %2 = load double, ptr %spread_.i, align 8, !tbaa !62
  %sub = fsub double %1, %2
  %gearing_.i = getelementptr inbounds nuw i8, ptr %this, i64 128
  %3 = load double, ptr %gearing_.i, align 8, !tbaa !61
  %div = fdiv double %sub, %3
  br label %return

return:                                           ; preds = %entry, %if.then
  %retval.0 = phi double [ %div, %if.then ], [ 0x47EFFFFFE0000000, %entry ]
  ret double %retval.0
}